; Function Attrs: mustprogress uwtable
define noundef zeroext i1 @pkpy_setglobal(ptr noundef %0, i32 noundef %1) local_unnamed_addr #4 personality ptr @__gxx_personality_v0 {
  %3 = alloca i32, align 4
  %4 = alloca %"struct.pkpy::Str", align 8
  %5 = alloca i32, align 4
  %6 = getelementptr inbounds nuw i8, ptr %0, i64 264488
  %7 = load ptr, ptr %6, align 8
  %.not = icmp eq ptr %7, null
  br i1 %.not, label %8, label %28

8:                                                ; preds = %2
  %9 = tail call fastcc noundef i32 @_ZL20count_extra_elementsPN4pkpy2VMEi(ptr noundef nonnull %0)
  store i32 %9, ptr %3, align 4
  %10 = icmp slt i32 %9, 1
  br i1 %10, label %11, label %18

11:                                               ; preds = %8
  store i32 1, ptr %5, align 4
  call void @_ZN4pkpy2_SIJRA19_KciRA16_S1_RiEEENS_3StrEDpOT_(ptr dead_on_unwind nonnull writable sret(%"struct.pkpy::Str") align 8 %4, ptr noundef nonnull align 1 dereferenceable(19) @.str.2, ptr noundef nonnull align 4 dereferenceable(4) %5, ptr noundef nonnull align 1 dereferenceable(16) @.str.3, ptr noundef nonnull align 4 dereferenceable(4) %3)
  %12 = getelementptr inbounds nuw i8, ptr %4, i64 8
  %13 = load ptr, ptr %12, align 8
  %14 = invoke zeroext i1 @pkpy_error(ptr noundef nonnull %0, ptr noundef nonnull @.str.4, ptr noundef %13)
          to label %15 unwind label %16

15:                                               ; preds = %11
  call void @_ZN4pkpy3StrD1Ev(ptr noundef nonnull align 8 dereferenceable(32) %4) #32
  br label %28

16:                                               ; preds = %11
  %17 = landingpad { ptr, i32 }
          cleanup
  call void @_ZN4pkpy3StrD1Ev(ptr noundef nonnull align 8 dereferenceable(32) %4) #32
  resume { ptr, i32 } %17

18:                                               ; preds = %8
  %19 = getelementptr inbounds nuw i8, ptr %0, i64 264576
  %20 = load ptr, ptr %19, align 8
  %21 = getelementptr inbounds nuw i8, ptr %20, i64 16
  %22 = load ptr, ptr %21, align 8
  %23 = trunc i32 %1 to i16
  %24 = getelementptr inbounds nuw i8, ptr %0, i64 264296
  %25 = load ptr, ptr %24, align 8
  %26 = getelementptr inbounds i8, ptr %25, i64 -8
  store ptr %26, ptr %24, align 8
  %27 = load ptr, ptr %26, align 8
  tail call void @_ZN4pkpy12NameDictImplIPNS_8PyObjectEE3setENS_7StrNameES2_(ptr noundef nonnull align 8 dereferenceable(88) %22, i16 %23, ptr noundef %27)
  br label %28

28:                                               ; preds = %2, %18, %15
  %.0 = phi i1 [ false, %15 ], [ true, %18 ], [ false, %2 ]
  ret i1 %.0
}